target datalayout = "e-m:e-p270:32:32-p271:32:32-p272:64:64-i64:64-i128:128-f80:128-n8:16:32:64-S128"
target triple = "x86_64-pc-linux-gnu"

%struct.Aig_Obj_t_ = type { %union.anon, ptr, ptr, i64, i32, i32, %union.anon.0 }
%union.anon = type { ptr }
%union.anon.0 = type { ptr }
%struct.Fra_Sml_t_ = type { ptr, i32, i32, i32, i32, i32, i32, i32, i32, [0 x i32] }

; Function Attrs: inlinehint nounwind uwtable
define internal i32 @Aig_IsComplement(ptr noundef %0) #2 {
  %2 = alloca ptr, align 8
  store ptr %0, ptr %2, align 8, !tbaa !3
  %3 = load ptr, ptr %2, align 8, !tbaa !3
  %4 = ptrtoint ptr %3 to i64
  %5 = and i64 %4, 1
  %6 = trunc i64 %5 to i32
  ret i32 %6
}

; Function Attrs: inlinehint nounwind uwtable
define internal ptr @Aig_Regular(ptr noundef %0) #2 {
  %2 = alloca ptr, align 8
  store ptr %0, ptr %2, align 8, !tbaa !3
  %3 = load ptr, ptr %2, align 8, !tbaa !3
  %4 = ptrtoint ptr %3 to i64
  %5 = and i64 %4, -2
  %6 = inttoptr i64 %5 to ptr
  ret ptr %6
}

; Function Attrs: inlinehint nounwind uwtable
define internal i32 @Aig_ObjPhaseReal(ptr noundef %0) #2 {
  %2 = alloca ptr, align 8
  store ptr %0, ptr %2, align 8, !tbaa !3
  %3 = load ptr, ptr %2, align 8, !tbaa !3
  %4 = icmp ne ptr %3, null
  br i1 %4, label %5, label %16

5:                                                ; preds = %1
  %6 = load ptr, ptr %2, align 8, !tbaa !3
  %7 = call ptr @Aig_Regular(ptr noundef %6)
  %8 = getelementptr inbounds nuw %struct.Aig_Obj_t_, ptr %7, i32 0, i32 3
  %9 = load i64, ptr %8, align 8
  %10 = lshr i64 %9, 3
  %11 = and i64 %10, 1
  %12 = trunc i64 %11 to i32
  %13 = load ptr, ptr %2, align 8, !tbaa !3
  %14 = call i32 @Aig_IsComplement(ptr noundef %13)
  %15 = xor i32 %12, %14
  br label %17

16:                                               ; preds = %1
  br label %17

17:                                               ; preds = %16, %5
  %18 = phi i32 [ %15, %5 ], [ 1, %16 ]
  ret i32 %18
}

; Function Attrs: inlinehint nounwind uwtable
define internal ptr @Aig_ObjChild0(ptr noundef %0) #2 {
  %2 = alloca ptr, align 8
  store ptr %0, ptr %2, align 8, !tbaa !3
  %3 = load ptr, ptr %2, align 8, !tbaa !3
  %4 = getelementptr inbounds nuw %struct.Aig_Obj_t_, ptr %3, i32 0, i32 1
  %5 = load ptr, ptr %4, align 8, !tbaa !88
  ret ptr %5
}

; Function Attrs: inlinehint nounwind uwtable
define internal ptr @Aig_ObjFanin0(ptr noundef %0) #2 {
  %2 = alloca ptr, align 8
  store ptr %0, ptr %2, align 8, !tbaa !3
  %3 = load ptr, ptr %2, align 8, !tbaa !3
  %4 = getelementptr inbounds nuw %struct.Aig_Obj_t_, ptr %3, i32 0, i32 1
  %5 = load ptr, ptr %4, align 8, !tbaa !88
  %6 = call ptr @Aig_Regular(ptr noundef %5)
  ret ptr %6
}

; Function Attrs: inlinehint nounwind uwtable
define internal ptr @Fra_ObjSim(ptr noundef %0, i32 noundef %1) #2 {
  %3 = alloca ptr, align 8
  %4 = alloca i32, align 4
  store ptr %0, ptr %3, align 8, !tbaa !35
  store i32 %1, ptr %4, align 4, !tbaa !8
  %5 = load ptr, ptr %3, align 8, !tbaa !35
  %6 = getelementptr inbounds nuw %struct.Fra_Sml_t_, ptr %5, i32 0, i32 9
  %7 = getelementptr inbounds [0 x i32], ptr %6, i64 0, i64 0
  %8 = load ptr, ptr %3, align 8, !tbaa !35
  %9 = getelementptr inbounds nuw %struct.Fra_Sml_t_, ptr %8, i32 0, i32 4
  %10 = load i32, ptr %9, align 4, !tbaa !32
  %11 = load i32, ptr %4, align 4, !tbaa !8
  %12 = mul nsw i32 %10, %11
  %13 = sext i32 %12 to i64
  %14 = getelementptr inbounds i32, ptr %7, i64 %13
  ret ptr %14
}

; Function Attrs: nounwind uwtable
define void @Fra_SmlNodeCopyFanin(ptr noundef %0, ptr noundef %1, i32 noundef %2) #0 {
  %4 = alloca ptr, align 8
  %5 = alloca ptr, align 8
  %6 = alloca i32, align 4
  %7 = alloca ptr, align 8
  %8 = alloca ptr, align 8
  %9 = alloca i32, align 4
  %10 = alloca i32, align 4
  %11 = alloca i32, align 4
  store ptr %0, ptr %4, align 8, !tbaa !35
  store ptr %1, ptr %5, align 8, !tbaa !3
  store i32 %2, ptr %6, align 4, !tbaa !8
  call void @llvm.lifetime.start.p0(i64 8, ptr %7) #8
  call void @llvm.lifetime.start.p0(i64 8, ptr %8) #8
  call void @llvm.lifetime.start.p0(i64 4, ptr %9) #8
  call void @llvm.lifetime.start.p0(i64 4, ptr %10) #8
  call void @llvm.lifetime.start.p0(i64 4, ptr %11) #8
  %12 = load ptr, ptr %4, align 8, !tbaa !35
  %13 = load ptr, ptr %5, align 8, !tbaa !3
  %14 = getelementptr inbounds nuw %struct.Aig_Obj_t_, ptr %13, i32 0, i32 5
  %15 = load i32, ptr %14, align 4, !tbaa !27
  %16 = call ptr @Fra_ObjSim(ptr noundef %12, i32 noundef %15)
  %17 = load ptr, ptr %4, align 8, !tbaa !35
  %18 = getelementptr inbounds nuw %struct.Fra_Sml_t_, ptr %17, i32 0, i32 3
  %19 = load i32, ptr %18, align 8, !tbaa !92
  %20 = load i32, ptr %6, align 4, !tbaa !8
  %21 = mul nsw i32 %19, %20
  %22 = sext i32 %21 to i64
  %23 = getelementptr inbounds i32, ptr %16, i64 %22
  store ptr %23, ptr %7, align 8, !tbaa !29
  %24 = load ptr, ptr %4, align 8, !tbaa !35
  %25 = load ptr, ptr %5, align 8, !tbaa !3
  %26 = call ptr @Aig_ObjFanin0(ptr noundef %25)
  %27 = getelementptr inbounds nuw %struct.Aig_Obj_t_, ptr %26, i32 0, i32 5
  %28 = load i32, ptr %27, align 4, !tbaa !27
  %29 = call ptr @Fra_ObjSim(ptr noundef %24, i32 noundef %28)
  %30 = load ptr, ptr %4, align 8, !tbaa !35
  %31 = getelementptr inbounds nuw %struct.Fra_Sml_t_, ptr %30, i32 0, i32 3
  %32 = load i32, ptr %31, align 8, !tbaa !92
  %33 = load i32, ptr %6, align 4, !tbaa !8
  %34 = mul nsw i32 %32, %33
  %35 = sext i32 %34 to i64
  %36 = getelementptr inbounds i32, ptr %29, i64 %35
  store ptr %36, ptr %8, align 8, !tbaa !29
  %37 = load ptr, ptr %5, align 8, !tbaa !3
  %38 = getelementptr inbounds nuw %struct.Aig_Obj_t_, ptr %37, i32 0, i32 3
  %39 = load i64, ptr %38, align 8
  %40 = lshr i64 %39, 3
  %41 = and i64 %40, 1
  %42 = trunc i64 %41 to i32
  store i32 %42, ptr %9, align 4, !tbaa !8
  %43 = load ptr, ptr %5, align 8, !tbaa !3
  %44 = call ptr @Aig_ObjChild0(ptr noundef %43)
  %45 = call i32 @Aig_ObjPhaseReal(ptr noundef %44)
  store i32 %45, ptr %10, align 4, !tbaa !8
  %46 = load i32, ptr %10, align 4, !tbaa !8
  %47 = icmp ne i32 %46, 0
  br i1 %47, label %48, label %70

48:                                               ; preds = %3
  store i32 0, ptr %11, align 4, !tbaa !8
  br label %49

49:                                               ; preds = %66, %48
  %50 = load i32, ptr %11, align 4, !tbaa !8
  %51 = load ptr, ptr %4, align 8, !tbaa !35
  %52 = getelementptr inbounds nuw %struct.Fra_Sml_t_, ptr %51, i32 0, i32 3
  %53 = load i32, ptr %52, align 8, !tbaa !92
  %54 = icmp slt i32 %50, %53
  br i1 %54, label %55, label %69

55:                                               ; preds = %49
  %56 = load ptr, ptr %8, align 8, !tbaa !29
  %57 = load i32, ptr %11, align 4, !tbaa !8
  %58 = sext i32 %57 to i64
  %59 = getelementptr inbounds i32, ptr %56, i64 %58
  %60 = load i32, ptr %59, align 4, !tbaa !8
  %61 = xor i32 %60, -1
  %62 = load ptr, ptr %7, align 8, !tbaa !29
  %63 = load i32, ptr %11, align 4, !tbaa !8
  %64 = sext i32 %63 to i64
  %65 = getelementptr inbounds i32, ptr %62, i64 %64
  store i32 %61, ptr %65, align 4, !tbaa !8
  br label %66

66:                                               ; preds = %55
  %67 = load i32, ptr %11, align 4, !tbaa !8
  %68 = add nsw i32 %67, 1
  store i32 %68, ptr %11, align 4, !tbaa !8
  br label %49, !llvm.loop !115

69:                                               ; preds = %49
  br label %91

70:                                               ; preds = %3
  store i32 0, ptr %11, align 4, !tbaa !8
  br label %71

71:                                               ; preds = %87, %70
  %72 = load i32, ptr %11, align 4, !tbaa !8
  %73 = load ptr, ptr %4, align 8, !tbaa !35
  %74 = getelementptr inbounds nuw %struct.Fra_Sml_t_, ptr %73, i32 0, i32 3
  %75 = load i32, ptr %74, align 8, !tbaa !92
  %76 = icmp slt i32 %72, %75
  br i1 %76, label %77, label %90

77:                                               ; preds = %71
  %78 = load ptr, ptr %8, align 8, !tbaa !29
  %79 = load i32, ptr %11, align 4, !tbaa !8
  %80 = sext i32 %79 to i64
  %81 = getelementptr inbounds i32, ptr %78, i64 %80
  %82 = load i32, ptr %81, align 4, !tbaa !8
  %83 = load ptr, ptr %7, align 8, !tbaa !29
  %84 = load i32, ptr %11, align 4, !tbaa !8
  %85 = sext i32 %84 to i64
  %86 = getelementptr inbounds i32, ptr %83, i64 %85
  store i32 %82, ptr %86, align 4, !tbaa !8
  br label %87

87:                                               ; preds = %77
  %88 = load i32, ptr %11, align 4, !tbaa !8
  %89 = add nsw i32 %88, 1
  store i32 %89, ptr %11, align 4, !tbaa !8
  br label %71, !llvm.loop !116

90:                                               ; preds = %71
  br label %91

91:                                               ; preds = %90, %69
  call void @llvm.lifetime.end.p0(i64 4, ptr %11) #8
  call void @llvm.lifetime.end.p0(i64 4, ptr %10) #8
  call void @llvm.lifetime.end.p0(i64 4, ptr %9) #8
  call void @llvm.lifetime.end.p0(i64 8, ptr %8) #8
  call void @llvm.lifetime.end.p0(i64 8, ptr %7) #8
  ret void
}