; Function Attrs: nofree norecurse nosync nounwind memory(read, argmem: readwrite, inaccessiblemem: none) uwtable
define void @Fra_SmlNodeCopyFanin(ptr noundef captures(none) %0, ptr noundef readonly captures(none) %1, i32 noundef %2) local_unnamed_addr #10 {
  %4 = getelementptr inbounds nuw i8, ptr %1, i64 36
  %5 = load i32, ptr %4, align 4, !tbaa !22
  %6 = getelementptr inbounds nuw i8, ptr %0, i64 40
  %7 = getelementptr inbounds nuw i8, ptr %0, i64 20
  %8 = load i32, ptr %7, align 4, !tbaa !25
  %9 = mul nsw i32 %8, %5
  %10 = sext i32 %9 to i64
  %11 = getelementptr inbounds i32, ptr %6, i64 %10
  %12 = getelementptr inbounds nuw i8, ptr %0, i64 16
  %13 = load i32, ptr %12, align 8, !tbaa !83
  %14 = mul nsw i32 %13, %2
  %15 = sext i32 %14 to i64
  %16 = getelementptr inbounds i32, ptr %11, i64 %15
  %17 = getelementptr i8, ptr %1, i64 8
  %.val = load ptr, ptr %17, align 8, !tbaa !75
  %18 = ptrtoint ptr %.val to i64
  %19 = and i64 %18, -2
  %20 = inttoptr i64 %19 to ptr
  %21 = getelementptr inbounds nuw i8, ptr %20, i64 36
  %22 = load i32, ptr %21, align 4, !tbaa !22
  %23 = mul nsw i32 %22, %8
  %24 = sext i32 %23 to i64
  %25 = getelementptr inbounds i32, ptr %6, i64 %24
  %26 = getelementptr inbounds i32, ptr %25, i64 %15
  %.not.i = icmp eq ptr %.val, null
  br i1 %.not.i, label %.critedge.preheader, label %Aig_ObjPhaseReal.exit

Aig_ObjPhaseReal.exit:                            ; preds = %3
  %27 = getelementptr inbounds nuw i8, ptr %20, i64 24
  %28 = load i64, ptr %27, align 8
  %29 = trunc i64 %28 to i32
  %30 = lshr i32 %29, 3
  %31 = trunc i64 %18 to i32
  %32 = xor i32 %30, %31
  %33 = and i32 %32, 1
  %34 = icmp eq i32 %33, 0
  br i1 %34, label %.preheader, label %.critedge.preheader

.preheader:                                       ; preds = %Aig_ObjPhaseReal.exit
  %35 = icmp sgt i32 %13, 0
  br i1 %35, label %.lr.ph, label %.loopexit

.critedge.preheader:                              ; preds = %Aig_ObjPhaseReal.exit, %3
  %36 = icmp sgt i32 %13, 0
  br i1 %36, label %.critedge, label %.loopexit

.critedge:                                        ; preds = %.critedge.preheader, %.critedge
  %indvars.iv32 = phi i64 [ %indvars.iv.next33, %.critedge ], [ 0, %.critedge.preheader ]
  %37 = getelementptr inbounds nuw i32, ptr %26, i64 %indvars.iv32
  %38 = load i32, ptr %37, align 4, !tbaa !28
  %39 = xor i32 %38, -1
  %40 = getelementptr inbounds nuw i32, ptr %16, i64 %indvars.iv32
  store i32 %39, ptr %40, align 4, !tbaa !28
  %indvars.iv.next33 = add nuw nsw i64 %indvars.iv32, 1
  %41 = load i32, ptr %12, align 8, !tbaa !83
  %42 = sext i32 %41 to i64
  %43 = icmp slt i64 %indvars.iv.next33, %42
  br i1 %43, label %.critedge, label %.loopexit, !llvm.loop !106

.lr.ph:                                           ; preds = %.preheader, %.lr.ph
  %indvars.iv = phi i64 [ %indvars.iv.next, %.lr.ph ], [ 0, %.preheader ]
  %44 = getelementptr inbounds nuw i32, ptr %26, i64 %indvars.iv
  %45 = load i32, ptr %44, align 4, !tbaa !28
  %46 = getelementptr inbounds nuw i32, ptr %16, i64 %indvars.iv
  store i32 %45, ptr %46, align 4, !tbaa !28
  %indvars.iv.next = add nuw nsw i64 %indvars.iv, 1
  %47 = load i32, ptr %12, align 8, !tbaa !83
  %48 = sext i32 %47 to i64
  %49 = icmp slt i64 %indvars.iv.next, %48
  br i1 %49, label %.lr.ph, label %.loopexit, !llvm.loop !107

.loopexit:                                        ; preds = %.lr.ph, %.critedge, %.preheader, %.critedge.preheader
  ret void
}